; Function Attrs: mustprogress nounwind uwtable
define internal fastcc void @_ZL28textFileFormatYy_init_bufferP15yy_buffer_stateP8_IO_FILEPv(ptr noundef %0, ptr noundef %1, ptr noundef captures(none) %2) unnamed_addr #1 {
  %4 = tail call ptr @__errno_location() #34
  %5 = load i32, ptr %4, align 4
  %.not.i = icmp eq ptr %0, null
  br i1 %.not.i, label %_Z29textFileFormatYy_flush_bufferP15yy_buffer_statePv.exit, label %6

6:                                                ; preds = %3
  %7 = getelementptr inbounds nuw i8, ptr %0, i64 32
  store i64 0, ptr %7, align 8
  %8 = getelementptr inbounds nuw i8, ptr %0, i64 8
  %9 = load ptr, ptr %8, align 8
  store i8 0, ptr %9, align 1
  %10 = load ptr, ptr %8, align 8
  %11 = getelementptr inbounds nuw i8, ptr %10, i64 1
  store i8 0, ptr %11, align 1
  %12 = load ptr, ptr %8, align 8
  %13 = getelementptr inbounds nuw i8, ptr %0, i64 16
  store ptr %12, ptr %13, align 8
  %14 = getelementptr inbounds nuw i8, ptr %0, i64 48
  store i32 1, ptr %14, align 8
  %15 = getelementptr inbounds nuw i8, ptr %0, i64 64
  store i32 0, ptr %15, align 8
  %16 = getelementptr inbounds nuw i8, ptr %2, i64 40
  %17 = load ptr, ptr %16, align 8
  %.not15.i = icmp eq ptr %17, null
  br i1 %.not15.i, label %_Z29textFileFormatYy_flush_bufferP15yy_buffer_statePv.exit, label %18

18:                                               ; preds = %6
  %19 = getelementptr inbounds nuw i8, ptr %2, i64 24
  %20 = load i64, ptr %19, align 8
  %21 = getelementptr inbounds ptr, ptr %17, i64 %20
  %22 = load ptr, ptr %21, align 8
  %23 = icmp eq ptr %0, %22
  br i1 %23, label %24, label %_Z29textFileFormatYy_flush_bufferP15yy_buffer_statePv.exit

24:                                               ; preds = %18
  %25 = getelementptr inbounds nuw i8, ptr %22, i64 32
  %26 = load i64, ptr %25, align 8
  %27 = getelementptr inbounds nuw i8, ptr %2, i64 56
  store i64 %26, ptr %27, align 8
  %28 = load ptr, ptr %21, align 8
  %29 = getelementptr inbounds nuw i8, ptr %28, i64 16
  %30 = load ptr, ptr %29, align 8
  %31 = getelementptr inbounds nuw i8, ptr %2, i64 72
  store ptr %30, ptr %31, align 8
  %32 = getelementptr inbounds nuw i8, ptr %2, i64 136
  store ptr %30, ptr %32, align 8
  %33 = load ptr, ptr %21, align 8
  %34 = load ptr, ptr %33, align 8
  %35 = getelementptr inbounds nuw i8, ptr %2, i64 8
  store ptr %34, ptr %35, align 8
  %36 = load i8, ptr %30, align 1
  %37 = getelementptr inbounds nuw i8, ptr %2, i64 48
  store i8 %36, ptr %37, align 8
  br label %_Z29textFileFormatYy_flush_bufferP15yy_buffer_statePv.exit

_Z29textFileFormatYy_flush_bufferP15yy_buffer_statePv.exit: ; preds = %3, %6, %18, %24
  store ptr %1, ptr %0, align 8
  %38 = getelementptr inbounds nuw i8, ptr %0, i64 60
  store i32 1, ptr %38, align 4
  %39 = getelementptr inbounds nuw i8, ptr %2, i64 40
  %40 = load ptr, ptr %39, align 8
  %.not = icmp eq ptr %40, null
  br i1 %.not, label %.thread, label %41

41:                                               ; preds = %_Z29textFileFormatYy_flush_bufferP15yy_buffer_statePv.exit
  %42 = getelementptr inbounds nuw i8, ptr %2, i64 24
  %43 = load i64, ptr %42, align 8
  %44 = getelementptr inbounds ptr, ptr %40, i64 %43
  %45 = load ptr, ptr %44, align 8
  %.not17 = icmp eq ptr %0, %45
  br i1 %.not17, label %48, label %.thread

.thread:                                          ; preds = %_Z29textFileFormatYy_flush_bufferP15yy_buffer_statePv.exit, %41
  %46 = getelementptr inbounds nuw i8, ptr %0, i64 52
  store i32 1, ptr %46, align 4
  %47 = getelementptr inbounds nuw i8, ptr %0, i64 56
  store i32 0, ptr %47, align 8
  br label %48

48:                                               ; preds = %.thread, %41
  %.not18 = icmp eq ptr %1, null
  br i1 %.not18, label %54, label %49

49:                                               ; preds = %48
  %50 = tail call i32 @fileno(ptr noundef nonnull %1) #32
  %51 = tail call i32 @isatty(i32 noundef %50) #32
  %52 = icmp sgt i32 %51, 0
  %53 = zext i1 %52 to i32
  br label %54

54:                                               ; preds = %48, %49
  %55 = phi i32 [ %53, %49 ], [ 0, %48 ]
  %56 = getelementptr inbounds nuw i8, ptr %0, i64 44
  store i32 %55, ptr %56, align 4
  store i32 %5, ptr %4, align 4
  ret void
}